; Function Attrs: nounwind uwtable
define hidden ptr @_PyMemoryView_FromBufferProc(ptr noundef %0, i32 noundef %1, ptr noundef readonly captures(none) %2) local_unnamed_addr #0 {
  %4 = tail call ptr @_PyObject_GC_New(ptr noundef nonnull @_PyManagedBuffer_Type) #14
  %5 = icmp eq ptr %4, null
  br i1 %5, label %Py_DECREF.exit13, label %6

6:                                                ; preds = %3
  %7 = getelementptr inbounds nuw i8, ptr %4, i64 16
  store i32 0, ptr %7, align 8, !tbaa !4
  %8 = getelementptr inbounds nuw i8, ptr %4, i64 24
  store i64 0, ptr %8, align 8, !tbaa !22
  %9 = getelementptr inbounds nuw i8, ptr %4, i64 40
  store ptr null, ptr %9, align 8, !tbaa !21
  %10 = getelementptr i8, ptr %4, i64 -16
  %11 = tail call align 8 ptr @llvm.threadlocal.address.p0(ptr align 8 @_Py_tss_tstate)
  %12 = load ptr, ptr %11, align 8, !tbaa !23
  %13 = getelementptr inbounds nuw i8, ptr %12, i64 16
  %14 = load ptr, ptr %13, align 8, !tbaa !25
  %15 = getelementptr inbounds nuw i8, ptr %14, i64 7424
  %16 = getelementptr inbounds nuw i8, ptr %14, i64 7432
  %17 = load i64, ptr %16, align 8, !tbaa !17
  %18 = inttoptr i64 %17 to ptr
  %19 = ptrtoint ptr %10 to i64
  %20 = load i64, ptr %18, align 8, !tbaa !19
  %21 = and i64 %20, 3
  %22 = or i64 %21, %19
  store i64 %22, ptr %18, align 8, !tbaa !19
  %23 = getelementptr i8, ptr %4, i64 -8
  %24 = load i64, ptr %23, align 8, !tbaa !17
  %25 = and i64 %24, 3
  %26 = or i64 %25, %17
  store i64 %26, ptr %23, align 8, !tbaa !17
  %27 = getelementptr inbounds nuw i8, ptr %14, i64 7632
  %28 = load i32, ptr %27, align 8, !tbaa !34
  %29 = xor i32 %28, 1
  %30 = sext i32 %29 to i64
  %31 = ptrtoint ptr %15 to i64
  %32 = or i64 %30, %31
  store i64 %32, ptr %10, align 8, !tbaa !19
  store i64 %19, ptr %16, align 8, !tbaa !17
  %33 = getelementptr inbounds nuw i8, ptr %4, i64 32
  %34 = tail call i32 %2(ptr noundef %0, ptr noundef nonnull %33, i32 noundef %1) #14
  %35 = icmp slt i32 %34, 0
  br i1 %35, label %36, label %41

36:                                               ; preds = %6
  store ptr null, ptr %9, align 8, !tbaa !21
  %37 = load i32, ptr %4, align 8, !tbaa !102
  %.not.i12 = icmp sgt i32 %37, -1
  br i1 %.not.i12, label %38, label %Py_DECREF.exit13

38:                                               ; preds = %36
  %39 = add nsw i32 %37, -1
  store i32 %39, ptr %4, align 8, !tbaa !102
  %40 = icmp eq i32 %39, 0
  br i1 %40, label %Py_DECREF.exit13.sink.split, label %Py_DECREF.exit13

41:                                               ; preds = %6
  %42 = tail call fastcc ptr @mbuf_add_view(ptr noundef nonnull %4, ptr noundef null)
  %43 = load i32, ptr %4, align 8, !tbaa !102
  %.not.i = icmp sgt i32 %43, -1
  br i1 %.not.i, label %44, label %Py_DECREF.exit13

44:                                               ; preds = %41
  %45 = add nsw i32 %43, -1
  store i32 %45, ptr %4, align 8, !tbaa !102
  %46 = icmp eq i32 %45, 0
  br i1 %46, label %Py_DECREF.exit13.sink.split, label %Py_DECREF.exit13

Py_DECREF.exit13.sink.split:                      ; preds = %44, %38
  %.0.ph = phi ptr [ null, %38 ], [ %42, %44 ]
  tail call void @_Py_Dealloc(ptr noundef nonnull %4) #14
  br label %Py_DECREF.exit13

Py_DECREF.exit13:                                 ; preds = %Py_DECREF.exit13.sink.split, %3, %44, %41, %38, %36
  %.0 = phi ptr [ null, %36 ], [ null, %38 ], [ %42, %41 ], [ %42, %44 ], [ null, %3 ], [ %.0.ph, %Py_DECREF.exit13.sink.split ]
  ret ptr %.0
}